Certificate:
    Data:
        Version: 3 (0x2)
        Serial Number:
            2d:e5:a2:06:7d:e2:df:23:29:78:82:db:83:45:b3:e0:24:58:bb:84
        Signature Algorithm: sha1WithRSAEncryption
        Issuer: C=AU, O=Dodgy Brothers, CN=Dodgy CA
        Validity
            Not Before: Jun  7 14:34:50 2024 GMT
            Not After : Jun  7 14:34:50 2025 GMT
        Subject: C=AU, O=Dodgy Brothers, CN=Brother 1, CN=lastupdate_generalizedtime
        Subject Public Key Info:
            Public Key Algorithm: rsaEncryption
                Public-Key: (2048 bit)
                Modulus:
                    00:be:95:86:fa:71:4c:6a:ea:51:98:50:4b:99:a1:
                    2c:66:15:f3:60:f3:e1:ff:69:fb:ce:48:01:1d:fe:
                    e1:2c:38:b0:e3:bd:8f:4b:48:a7:7e:3a:c6:73:e3:
                    ab:bf:e1:da:6e:96:f5:fe:c3:e4:b4:a8:ad:bc:56:
                    34:d4:96:25:74:27:c3:10:db:35:10:25:1c:8e:4b:
                    81:9b:fb:42:04:7c:6f:3d:e2:38:6c:0e:e4:2e:8e:
                    2a:18:6d:30:cd:67:2a:23:6b:37:cf:05:9f:cc:b7:
                    59:58:7f:ba:c4:0a:3f:8c:a4:ad:cb:98:9c:c0:f2:
                    8f:69:67:0f:c1:4e:33:cf:fc:85:5e:bb:5e:cf:93:
                    b0:cf:d9:f4:52:79:87:b1:f8:4d:15:68:65:d5:b7:
                    19:08:63:7f:5e:b1:34:ad:05:8f:5a:f0:e4:e1:8f:
                    25:f2:5c:5c:61:95:b0:56:2d:31:2b:08:65:79:e5:
                    b1:3b:9d:3e:b9:52:4b:ac:5d:c4:58:66:85:8d:81:
                    b3:04:28:f4:3f:2f:ac:92:01:62:d5:fd:8e:0b:da:
                    02:0c:7a:c7:6e:09:1c:ac:1c:b2:4c:d7:54:b8:26:
                    33:b2:5f:14:f3:b1:f9:3d:62:4d:40:99:6b:b6:e7:
                    89:58:97:d6:d4:4d:ea:4b:68:52:f3:3c:a8:b1:35:
                    88:db
                Exponent: 65537 (0x10001)
        X509v3 extensions:
            X509v3 Subject Key Identifier: 
                A1:DF:33:C3:CF:3E:53:41:A7:68:44:CC:AA:19:E1:84:C9:0D:BC:C6
            X509v3 Authority Key Identifier: 
                keyid:B4:11:33:F1:D7:E2:5E:F7:53:9E:20:22:10:4F:86:06:BF:1F:C9:5E
                DirName:/C=AU/O=Dodgy Brothers/CN=Dodgy CA
                serial:52:63:67:50:15:0A:0C:DD:5C:CE:9C:21:34:D3:E4:7B:DA:58:EE:11
            X509v3 Basic Constraints: critical
                CA:TRUE, pathlen:1
            X509v3 Key Usage: 
                Certificate Sign, CRL Sign
            X509v3 Issuer Alternative Name: 
                <EMPTY>

    Signature Algorithm: sha1WithRSAEncryption
    Signature Value:
        8f:3f:5d:9e:b9:46:94:df:87:ae:ad:5c:c6:77:38:43:8f:29:
        ae:6e:1c:9e:a5:ec:88:a9:e8:4f:52:b4:4f:18:b5:74:bc:31:
        9c:8c:05:f3:a3:61:73:a3:93:8d:8d:b8:f5:5f:d5:a5:62:4e:
        cf:e8:a1:d6:32:22:2e:d2:ae:bc:63:21:72:c0:ea:0b:76:92:
        97:6a:4b:0c:81:49:c3:98:f7:ce:aa:8f:77:84:e4:62:55:57:
        5f:20:87:00:38:87:9c:74:0e:b5:a7:a8:f2:54:81:64:50:98:
        db:72:a1:59:f0:b4:1d:c8:80:68:1d:41:25:d1:81:ed:33:2f:
        98:71:77:be:3b:ba:6c:79:2c:69:d7:e2:65:30:78:fe:8e:dd:
        4e:11:00:ac:a3:9e:82:a4:bd:b6:74:15:df:a5:15:79:a1:43:
        30:55:04:23:bc:01:3f:92:9d:e5:1e:06:7d:35:80:f4:65:73:
        23:dc:a6:66:a8:1f:be:fb:c4:8e:bf:af:f4:d9:11:e5:41:da:
        7d:95:27:a2:63:be:64:a6:56:fd:3a:9f:15:7e:2e:75:4b:b0:
        1c:b2:0a:61:66:f9:f8:89:d8:0a:26:57:b8:9c:3a:f7:b8:f0:
        a4:0f:46:cd:e9:fb:3e:f5:97:08:e7:32:e3:87:b1:a0:86:4a:
        aa:f5:dc:b5
-----BEGIN CERTIFICATE-----
MIID6zCCAtOgAwIBAgIULeWiBn3i3yMpeILbg0Wz4CRYu4QwDQYJKoZIhvcNAQEF
BQAwOTELMAkGA1UEBhMCQVUxFzAVBgNVBAoMDkRvZGd5IEJyb3RoZXJzMREwDwYD
VQQDDAhEb2RneSBDQTAeFw0yNDA2MDcxNDM0NTBaFw0yNTA2MDcxNDM0NTBaMF8x
CzAJBgNVBAYTAkFVMRcwFQYDVQQKDA5Eb2RneSBCcm90aGVyczESMBAGA1UEAwwJ
QnJvdGhlciAxMSMwIQYDVQQDDBpsYXN0dXBkYXRlX2dlbmVyYWxpemVkdGltZTCC
ASIwDQYJKoZIhvcNAQEBBQADggEPADCCAQoCggEBAL6VhvpxTGrqUZhQS5mhLGYV
82Dz4f9p+85IAR3+4Sw4sOO9j0tIp346xnPjq7/h2m6W9f7D5LSorbxWNNSWJXQn
wxDbNRAlHI5LgZv7QgR8bz3iOGwO5C6OKhhtMM1nKiNrN88Fn8y3WVh/usQKP4yk
rcuYnMDyj2lnD8FOM8/8hV67Xs+TsM/Z9FJ5h7H4TRVoZdW3GQhjf16xNK0Fj1rw
5OGPJfJcXGGVsFYtMSsIZXnlsTudPrlSS6xdxFhmhY2BswQo9D8vrJIBYtX9jgva
Agx6x24JHKwcskzXVLgmM7JfFPOx+T1iTUCZa7bniViX1tRN6ktoUvM8qLE1iNsC
AwEAAaOBxDCBwTAdBgNVHQ4EFgQUod8zw88+U0GnaETMqhnhhMkNvMYwdAYDVR0j
BG0wa4AUtBEz8dfiXvdTniAiEE+GBr8fyV6hPaQ7MDkxCzAJBgNVBAYTAkFVMRcw
FQYDVQQKDA5Eb2RneSBCcm90aGVyczERMA8GA1UEAwwIRG9kZ3kgQ0GCFFJjZ1AV
CgzdXM6cITTT5HvaWO4RMBIGA1UdEwEB/wQIMAYBAf8CAQEwCwYDVR0PBAQDAgEG
MAkGA1UdEgQCMAAwDQYJKoZIhvcNAQEFBQADggEBAI8/XZ65RpTfh66tXMZ3OEOP
Ka5uHJ6l7Iip6E9StE8YtXS8MZyMBfOjYXOjk42NuPVf1aViTs/oodYyIi7Srrxj
IXLA6gt2kpdqSwyBScOY986qj3eE5GJVV18ghwA4h5x0DrWnqPJUgWRQmNtyoVnw
tB3IgGgdQSXRge0zL5hxd747umx5LGnX4mUweP6O3U4RAKyjnoKkvbZ0Fd+lFXmh
QzBVBCO8AT+SneUeBn01gPRlcyPcpmaoH777xI6/r/TZEeVB2n2VJ6JjvmSmVv06
nxV+LnVLsByyCmFm+fiJ2AomV7icOve48KQPRs3p+z71lwjnMuOHsaCGSqr13LU=
-----END CERTIFICATE-----
