Certificate:
    Data:
        Version: 3 (0x2)
        Serial Number:
            2d:e5:a2:06:7d:e2:df:23:29:78:82:db:83:45:b3:e0:24:58:bb:89
        Signature Algorithm: sha1WithRSAEncryption
        Issuer: C=AU, O=Dodgy Brothers, CN=Dodgy CA
        Validity
            Not Before: Jun  7 14:34:59 2024 GMT
            Not After : Jun  7 14:34:59 2025 GMT
        Subject: C=AU, O=Dodgy Brothers, CN=Brother 1, CN=both_generalizedtime
        Subject Public Key Info:
            Public Key Algorithm: rsaEncryption
                Public-Key: (2048 bit)
                Modulus:
                    00:be:95:86:fa:71:4c:6a:ea:51:98:50:4b:99:a1:
                    2c:66:15:f3:60:f3:e1:ff:69:fb:ce:48:01:1d:fe:
                    e1:2c:38:b0:e3:bd:8f:4b:48:a7:7e:3a:c6:73:e3:
                    ab:bf:e1:da:6e:96:f5:fe:c3:e4:b4:a8:ad:bc:56:
                    34:d4:96:25:74:27:c3:10:db:35:10:25:1c:8e:4b:
                    81:9b:fb:42:04:7c:6f:3d:e2:38:6c:0e:e4:2e:8e:
                    2a:18:6d:30:cd:67:2a:23:6b:37:cf:05:9f:cc:b7:
                    59:58:7f:ba:c4:0a:3f:8c:a4:ad:cb:98:9c:c0:f2:
                    8f:69:67:0f:c1:4e:33:cf:fc:85:5e:bb:5e:cf:93:
                    b0:cf:d9:f4:52:79:87:b1:f8:4d:15:68:65:d5:b7:
                    19:08:63:7f:5e:b1:34:ad:05:8f:5a:f0:e4:e1:8f:
                    25:f2:5c:5c:61:95:b0:56:2d:31:2b:08:65:79:e5:
                    b1:3b:9d:3e:b9:52:4b:ac:5d:c4:58:66:85:8d:81:
                    b3:04:28:f4:3f:2f:ac:92:01:62:d5:fd:8e:0b:da:
                    02:0c:7a:c7:6e:09:1c:ac:1c:b2:4c:d7:54:b8:26:
                    33:b2:5f:14:f3:b1:f9:3d:62:4d:40:99:6b:b6:e7:
                    89:58:97:d6:d4:4d:ea:4b:68:52:f3:3c:a8:b1:35:
                    88:db
                Exponent: 65537 (0x10001)
        X509v3 extensions:
            X509v3 Subject Key Identifier: 
                A1:DF:33:C3:CF:3E:53:41:A7:68:44:CC:AA:19:E1:84:C9:0D:BC:C6
            X509v3 Authority Key Identifier: 
                keyid:B4:11:33:F1:D7:E2:5E:F7:53:9E:20:22:10:4F:86:06:BF:1F:C9:5E
                DirName:/C=AU/O=Dodgy Brothers/CN=Dodgy CA
                serial:52:63:67:50:15:0A:0C:DD:5C:CE:9C:21:34:D3:E4:7B:DA:58:EE:11
            X509v3 Basic Constraints: critical
                CA:TRUE, pathlen:1
            X509v3 Key Usage: 
                Certificate Sign, CRL Sign
            X509v3 Issuer Alternative Name: 
                <EMPTY>

    Signature Algorithm: sha1WithRSAEncryption
    Signature Value:
        3e:b6:b6:e8:f7:5d:fe:7c:62:c4:42:34:44:3a:32:b5:90:79:
        96:fc:19:34:4c:ad:a3:8b:a7:e6:4c:f3:ec:fc:95:89:14:55:
        67:8d:c8:aa:56:05:09:72:33:f1:0f:bc:2f:4f:7a:11:aa:21:
        08:aa:f6:39:3a:4b:22:d3:ca:95:06:f4:d4:60:62:7e:76:e6:
        31:c3:0e:5a:ca:87:a6:42:f9:eb:5c:b8:61:84:d9:2e:5d:54:
        f0:8d:82:ad:a7:a7:72:f0:e2:e9:c2:53:ee:c4:bc:c5:5c:a7:
        07:cb:23:5c:b4:00:04:4d:c8:78:5e:46:51:8f:69:28:d5:c2:
        96:49:e7:a1:5d:59:a0:7b:d9:56:45:f2:d0:19:61:76:0c:e1:
        df:20:64:a9:41:92:12:f2:e4:bf:f5:65:05:fe:ed:37:73:0a:
        8e:9c:53:7b:6e:02:a0:73:9e:b7:9d:bd:34:b4:37:04:cc:1f:
        dd:0d:73:be:e6:aa:ea:43:38:9c:6f:11:1b:55:04:e6:9f:39:
        f8:51:d9:5d:c9:ef:c3:2b:e6:4b:61:20:6b:e0:45:9e:08:bb:
        97:f1:b7:fb:c2:1d:0d:64:e5:0c:87:98:8d:22:0c:d3:b8:16:
        61:33:59:ba:f1:25:91:d8:ad:83:45:33:cc:c4:2e:e7:d5:76:
        c1:7d:e5:6f
-----BEGIN CERTIFICATE-----
MIID5TCCAs2gAwIBAgIULeWiBn3i3yMpeILbg0Wz4CRYu4kwDQYJKoZIhvcNAQEF
BQAwOTELMAkGA1UEBhMCQVUxFzAVBgNVBAoMDkRvZGd5IEJyb3RoZXJzMREwDwYD
VQQDDAhEb2RneSBDQTAeFw0yNDA2MDcxNDM0NTlaFw0yNTA2MDcxNDM0NTlaMFkx
CzAJBgNVBAYTAkFVMRcwFQYDVQQKDA5Eb2RneSBCcm90aGVyczESMBAGA1UEAwwJ
QnJvdGhlciAxMR0wGwYDVQQDDBRib3RoX2dlbmVyYWxpemVkdGltZTCCASIwDQYJ
KoZIhvcNAQEBBQADggEPADCCAQoCggEBAL6VhvpxTGrqUZhQS5mhLGYV82Dz4f9p
+85IAR3+4Sw4sOO9j0tIp346xnPjq7/h2m6W9f7D5LSorbxWNNSWJXQnwxDbNRAl
HI5LgZv7QgR8bz3iOGwO5C6OKhhtMM1nKiNrN88Fn8y3WVh/usQKP4ykrcuYnMDy
j2lnD8FOM8/8hV67Xs+TsM/Z9FJ5h7H4TRVoZdW3GQhjf16xNK0Fj1rw5OGPJfJc
XGGVsFYtMSsIZXnlsTudPrlSS6xdxFhmhY2BswQo9D8vrJIBYtX9jgvaAgx6x24J
HKwcskzXVLgmM7JfFPOx+T1iTUCZa7bniViX1tRN6ktoUvM8qLE1iNsCAwEAAaOB
xDCBwTAdBgNVHQ4EFgQUod8zw88+U0GnaETMqhnhhMkNvMYwdAYDVR0jBG0wa4AU
tBEz8dfiXvdTniAiEE+GBr8fyV6hPaQ7MDkxCzAJBgNVBAYTAkFVMRcwFQYDVQQK
DA5Eb2RneSBCcm90aGVyczERMA8GA1UEAwwIRG9kZ3kgQ0GCFFJjZ1AVCgzdXM6c
ITTT5HvaWO4RMBIGA1UdEwEB/wQIMAYBAf8CAQEwCwYDVR0PBAQDAgEGMAkGA1Ud
EgQCMAAwDQYJKoZIhvcNAQEFBQADggEBAD62tuj3Xf58YsRCNEQ6MrWQeZb8GTRM
raOLp+ZM8+z8lYkUVWeNyKpWBQlyM/EPvC9PehGqIQiq9jk6SyLTypUG9NRgYn52
5jHDDlrKh6ZC+etcuGGE2S5dVPCNgq2np3Lw4unCU+7EvMVcpwfLI1y0AARNyHhe
RlGPaSjVwpZJ56FdWaB72VZF8tAZYXYM4d8gZKlBkhLy5L/1ZQX+7TdzCo6cU3tu
AqBznredvTS0NwTMH90Nc77mqupDOJxvERtVBOafOfhR2V3J78Mr5kthIGvgRZ4I
u5fxt/vCHQ1k5QyHmI0iDNO4FmEzWbrxJZHYrYNFM8zELufVdsF95W8=
-----END CERTIFICATE-----
