Certificate:
    Data:
        Version: 3 (0x2)
        Serial Number:
            2d:e5:a2:06:7d:e2:df:23:29:78:82:db:83:45:b3:e0:24:58:bb:86
        Signature Algorithm: sha1WithRSAEncryption
        Issuer: C=AU, O=Dodgy Brothers, CN=Dodgy CA
        Validity
            Not Before: Jun  7 14:34:53 2024 GMT
            Not After : Jun  7 14:34:53 2025 GMT
        Subject: C=AU, O=Dodgy Brothers, CN=Brother 1, CN=nextupdate_utctime
        Subject Public Key Info:
            Public Key Algorithm: rsaEncryption
                Public-Key: (2048 bit)
                Modulus:
                    00:be:95:86:fa:71:4c:6a:ea:51:98:50:4b:99:a1:
                    2c:66:15:f3:60:f3:e1:ff:69:fb:ce:48:01:1d:fe:
                    e1:2c:38:b0:e3:bd:8f:4b:48:a7:7e:3a:c6:73:e3:
                    ab:bf:e1:da:6e:96:f5:fe:c3:e4:b4:a8:ad:bc:56:
                    34:d4:96:25:74:27:c3:10:db:35:10:25:1c:8e:4b:
                    81:9b:fb:42:04:7c:6f:3d:e2:38:6c:0e:e4:2e:8e:
                    2a:18:6d:30:cd:67:2a:23:6b:37:cf:05:9f:cc:b7:
                    59:58:7f:ba:c4:0a:3f:8c:a4:ad:cb:98:9c:c0:f2:
                    8f:69:67:0f:c1:4e:33:cf:fc:85:5e:bb:5e:cf:93:
                    b0:cf:d9:f4:52:79:87:b1:f8:4d:15:68:65:d5:b7:
                    19:08:63:7f:5e:b1:34:ad:05:8f:5a:f0:e4:e1:8f:
                    25:f2:5c:5c:61:95:b0:56:2d:31:2b:08:65:79:e5:
                    b1:3b:9d:3e:b9:52:4b:ac:5d:c4:58:66:85:8d:81:
                    b3:04:28:f4:3f:2f:ac:92:01:62:d5:fd:8e:0b:da:
                    02:0c:7a:c7:6e:09:1c:ac:1c:b2:4c:d7:54:b8:26:
                    33:b2:5f:14:f3:b1:f9:3d:62:4d:40:99:6b:b6:e7:
                    89:58:97:d6:d4:4d:ea:4b:68:52:f3:3c:a8:b1:35:
                    88:db
                Exponent: 65537 (0x10001)
        X509v3 extensions:
            X509v3 Subject Key Identifier: 
                A1:DF:33:C3:CF:3E:53:41:A7:68:44:CC:AA:19:E1:84:C9:0D:BC:C6
            X509v3 Authority Key Identifier: 
                keyid:B4:11:33:F1:D7:E2:5E:F7:53:9E:20:22:10:4F:86:06:BF:1F:C9:5E
                DirName:/C=AU/O=Dodgy Brothers/CN=Dodgy CA
                serial:52:63:67:50:15:0A:0C:DD:5C:CE:9C:21:34:D3:E4:7B:DA:58:EE:11
            X509v3 Basic Constraints: critical
                CA:TRUE, pathlen:1
            X509v3 Key Usage: 
                Certificate Sign, CRL Sign
            X509v3 Issuer Alternative Name: 
                <EMPTY>

    Signature Algorithm: sha1WithRSAEncryption
    Signature Value:
        28:c2:92:d8:5d:13:f7:37:02:41:ae:b7:db:52:af:6b:77:33:
        b0:49:c2:f7:a9:74:53:1b:ad:06:87:bd:dc:9b:d8:8d:f0:5a:
        37:b9:20:6e:30:72:f0:6c:f5:ea:57:6f:ab:b2:bf:ab:b2:0c:
        42:40:ff:71:4a:3b:64:50:52:97:a3:a3:0e:9f:0f:f1:76:6b:
        ce:f9:1c:40:f2:3f:ee:5a:3c:9b:eb:ae:20:cd:7b:78:66:cb:
        b2:c6:c8:cd:b6:b3:43:83:25:dd:52:b3:e3:68:74:37:2e:e7:
        37:5f:95:e0:9e:e4:2c:1f:be:59:47:35:67:b6:4e:93:27:70:
        6a:e8:05:d7:2b:a6:62:32:83:43:fc:c2:c1:1b:2e:75:d0:e1:
        fa:06:42:ef:ee:55:c4:f9:be:80:df:6b:2e:40:c0:c8:52:76:
        85:66:17:b2:fe:28:c9:85:5f:57:ab:28:44:3f:b1:c0:3d:3b:
        f7:0d:ba:07:0a:92:e7:cc:8a:c2:dd:bf:0f:f6:a8:66:39:35:
        09:a0:00:c7:0c:98:08:17:c8:0c:b6:05:9a:71:b6:71:3d:89:
        f7:a0:6f:17:d9:82:55:da:77:41:de:8a:e0:c1:0e:0a:88:8e:
        a8:57:16:fb:24:c5:3d:82:18:6e:77:1a:6a:db:c8:1c:d8:28:
        ef:fe:f5:36
-----BEGIN CERTIFICATE-----
MIID4zCCAsugAwIBAgIULeWiBn3i3yMpeILbg0Wz4CRYu4YwDQYJKoZIhvcNAQEF
BQAwOTELMAkGA1UEBhMCQVUxFzAVBgNVBAoMDkRvZGd5IEJyb3RoZXJzMREwDwYD
VQQDDAhEb2RneSBDQTAeFw0yNDA2MDcxNDM0NTNaFw0yNTA2MDcxNDM0NTNaMFcx
CzAJBgNVBAYTAkFVMRcwFQYDVQQKDA5Eb2RneSBCcm90aGVyczESMBAGA1UEAwwJ
QnJvdGhlciAxMRswGQYDVQQDDBJuZXh0dXBkYXRlX3V0Y3RpbWUwggEiMA0GCSqG
SIb3DQEBAQUAA4IBDwAwggEKAoIBAQC+lYb6cUxq6lGYUEuZoSxmFfNg8+H/afvO
SAEd/uEsOLDjvY9LSKd+OsZz46u/4dpulvX+w+S0qK28VjTUliV0J8MQ2zUQJRyO
S4Gb+0IEfG894jhsDuQujioYbTDNZyojazfPBZ/Mt1lYf7rECj+MpK3LmJzA8o9p
Zw/BTjPP/IVeu17Pk7DP2fRSeYex+E0VaGXVtxkIY39esTStBY9a8OThjyXyXFxh
lbBWLTErCGV55bE7nT65UkusXcRYZoWNgbMEKPQ/L6ySAWLV/Y4L2gIMesduCRys
HLJM11S4JjOyXxTzsfk9Yk1AmWu254lYl9bUTepLaFLzPKixNYjbAgMBAAGjgcQw
gcEwHQYDVR0OBBYEFKHfM8PPPlNBp2hEzKoZ4YTJDbzGMHQGA1UdIwRtMGuAFLQR
M/HX4l73U54gIhBPhga/H8leoT2kOzA5MQswCQYDVQQGEwJBVTEXMBUGA1UECgwO
RG9kZ3kgQnJvdGhlcnMxETAPBgNVBAMMCERvZGd5IENBghRSY2dQFQoM3VzOnCE0
0+R72ljuETASBgNVHRMBAf8ECDAGAQH/AgEBMAsGA1UdDwQEAwIBBjAJBgNVHRIE
AjAAMA0GCSqGSIb3DQEBBQUAA4IBAQAowpLYXRP3NwJBrrfbUq9rdzOwScL3qXRT
G60Gh73cm9iN8Fo3uSBuMHLwbPXqV2+rsr+rsgxCQP9xSjtkUFKXo6MOnw/xdmvO
+RxA8j/uWjyb664gzXt4ZsuyxsjNtrNDgyXdUrPjaHQ3Luc3X5XgnuQsH75ZRzVn
tk6TJ3Bq6AXXK6ZiMoND/MLBGy510OH6BkLv7lXE+b6A32suQMDIUnaFZhey/ijJ
hV9XqyhEP7HAPTv3DboHCpLnzIrC3b8P9qhmOTUJoADHDJgIF8gMtgWacbZxPYn3
oG8X2YJV2ndB3orgwQ4KiI6oVxb7JMU9ghhudxpq28gc2Cjv/vU2
-----END CERTIFICATE-----
