Certificate:
    Data:
        Version: 3 (0x2)
        Serial Number:
            2d:e5:a2:06:7d:e2:df:23:29:78:82:db:83:45:b3:e0:24:58:bb:88
        Signature Algorithm: sha1WithRSAEncryption
        Issuer: C=AU, O=Dodgy Brothers, CN=Dodgy CA
        Validity
            Not Before: Jun  7 14:34:57 2024 GMT
            Not After : Jun  7 14:34:57 2025 GMT
        Subject: C=AU, O=Dodgy Brothers, CN=Brother 1, CN=both_utctime
        Subject Public Key Info:
            Public Key Algorithm: rsaEncryption
                Public-Key: (2048 bit)
                Modulus:
                    00:be:95:86:fa:71:4c:6a:ea:51:98:50:4b:99:a1:
                    2c:66:15:f3:60:f3:e1:ff:69:fb:ce:48:01:1d:fe:
                    e1:2c:38:b0:e3:bd:8f:4b:48:a7:7e:3a:c6:73:e3:
                    ab:bf:e1:da:6e:96:f5:fe:c3:e4:b4:a8:ad:bc:56:
                    34:d4:96:25:74:27:c3:10:db:35:10:25:1c:8e:4b:
                    81:9b:fb:42:04:7c:6f:3d:e2:38:6c:0e:e4:2e:8e:
                    2a:18:6d:30:cd:67:2a:23:6b:37:cf:05:9f:cc:b7:
                    59:58:7f:ba:c4:0a:3f:8c:a4:ad:cb:98:9c:c0:f2:
                    8f:69:67:0f:c1:4e:33:cf:fc:85:5e:bb:5e:cf:93:
                    b0:cf:d9:f4:52:79:87:b1:f8:4d:15:68:65:d5:b7:
                    19:08:63:7f:5e:b1:34:ad:05:8f:5a:f0:e4:e1:8f:
                    25:f2:5c:5c:61:95:b0:56:2d:31:2b:08:65:79:e5:
                    b1:3b:9d:3e:b9:52:4b:ac:5d:c4:58:66:85:8d:81:
                    b3:04:28:f4:3f:2f:ac:92:01:62:d5:fd:8e:0b:da:
                    02:0c:7a:c7:6e:09:1c:ac:1c:b2:4c:d7:54:b8:26:
                    33:b2:5f:14:f3:b1:f9:3d:62:4d:40:99:6b:b6:e7:
                    89:58:97:d6:d4:4d:ea:4b:68:52:f3:3c:a8:b1:35:
                    88:db
                Exponent: 65537 (0x10001)
        X509v3 extensions:
            X509v3 Subject Key Identifier: 
                A1:DF:33:C3:CF:3E:53:41:A7:68:44:CC:AA:19:E1:84:C9:0D:BC:C6
            X509v3 Authority Key Identifier: 
                keyid:B4:11:33:F1:D7:E2:5E:F7:53:9E:20:22:10:4F:86:06:BF:1F:C9:5E
                DirName:/C=AU/O=Dodgy Brothers/CN=Dodgy CA
                serial:52:63:67:50:15:0A:0C:DD:5C:CE:9C:21:34:D3:E4:7B:DA:58:EE:11
            X509v3 Basic Constraints: critical
                CA:TRUE, pathlen:1
            X509v3 Key Usage: 
                Certificate Sign, CRL Sign
            X509v3 Issuer Alternative Name: 
                <EMPTY>

    Signature Algorithm: sha1WithRSAEncryption
    Signature Value:
        32:47:99:d3:bd:70:e2:95:73:e2:bc:5f:a5:23:e4:8a:5f:1f:
        3b:48:cd:b5:d6:a8:5b:c1:c1:b8:f8:06:a6:64:59:da:0e:f2:
        8b:b5:f5:6b:68:52:46:24:42:b9:13:ea:81:b2:16:8d:fa:aa:
        1b:e2:b5:95:97:02:a6:d8:d6:fa:b0:4a:96:2f:c0:75:f1:37:
        a2:ae:5d:c6:86:42:0a:be:d9:f5:08:c4:1f:59:5f:d9:51:6a:
        6d:3c:66:95:6a:5a:c7:5d:f5:88:b8:86:40:39:60:c2:3a:80:
        1a:65:98:ab:73:c3:d3:4c:91:85:e1:88:2a:f8:4e:53:29:6d:
        91:80:ff:8a:39:ff:34:69:33:ca:51:fe:d6:b4:ba:3f:10:bd:
        cf:42:f9:86:01:a1:de:80:be:9c:82:f6:ac:84:3d:72:55:ff:
        6d:55:dd:13:a9:80:f3:7d:12:a2:5f:bc:f8:8c:9d:92:4f:50:
        36:ed:87:30:c6:fc:59:59:7a:94:b5:28:4d:cd:c6:1e:20:46:
        bc:f7:47:9e:07:76:54:5b:e6:e1:67:c4:5c:8c:12:c4:5e:d1:
        47:2e:88:ad:58:40:5c:c1:a2:37:98:c8:2b:48:49:18:93:36:
        5c:15:4c:2b:3d:21:57:f8:76:29:a5:79:9b:f4:73:7d:9f:17:
        97:64:64:30
-----BEGIN CERTIFICATE-----
MIID3TCCAsWgAwIBAgIULeWiBn3i3yMpeILbg0Wz4CRYu4gwDQYJKoZIhvcNAQEF
BQAwOTELMAkGA1UEBhMCQVUxFzAVBgNVBAoMDkRvZGd5IEJyb3RoZXJzMREwDwYD
VQQDDAhEb2RneSBDQTAeFw0yNDA2MDcxNDM0NTdaFw0yNTA2MDcxNDM0NTdaMFEx
CzAJBgNVBAYTAkFVMRcwFQYDVQQKDA5Eb2RneSBCcm90aGVyczESMBAGA1UEAwwJ
QnJvdGhlciAxMRUwEwYDVQQDDAxib3RoX3V0Y3RpbWUwggEiMA0GCSqGSIb3DQEB
AQUAA4IBDwAwggEKAoIBAQC+lYb6cUxq6lGYUEuZoSxmFfNg8+H/afvOSAEd/uEs
OLDjvY9LSKd+OsZz46u/4dpulvX+w+S0qK28VjTUliV0J8MQ2zUQJRyOS4Gb+0IE
fG894jhsDuQujioYbTDNZyojazfPBZ/Mt1lYf7rECj+MpK3LmJzA8o9pZw/BTjPP
/IVeu17Pk7DP2fRSeYex+E0VaGXVtxkIY39esTStBY9a8OThjyXyXFxhlbBWLTEr
CGV55bE7nT65UkusXcRYZoWNgbMEKPQ/L6ySAWLV/Y4L2gIMesduCRysHLJM11S4
JjOyXxTzsfk9Yk1AmWu254lYl9bUTepLaFLzPKixNYjbAgMBAAGjgcQwgcEwHQYD
VR0OBBYEFKHfM8PPPlNBp2hEzKoZ4YTJDbzGMHQGA1UdIwRtMGuAFLQRM/HX4l73
U54gIhBPhga/H8leoT2kOzA5MQswCQYDVQQGEwJBVTEXMBUGA1UECgwORG9kZ3kg
QnJvdGhlcnMxETAPBgNVBAMMCERvZGd5IENBghRSY2dQFQoM3VzOnCE00+R72lju
ETASBgNVHRMBAf8ECDAGAQH/AgEBMAsGA1UdDwQEAwIBBjAJBgNVHRIEAjAAMA0G
CSqGSIb3DQEBBQUAA4IBAQAyR5nTvXDilXPivF+lI+SKXx87SM211qhbwcG4+Aam
ZFnaDvKLtfVraFJGJEK5E+qBshaN+qob4rWVlwKm2Nb6sEqWL8B18Teirl3GhkIK
vtn1CMQfWV/ZUWptPGaValrHXfWIuIZAOWDCOoAaZZirc8PTTJGF4Ygq+E5TKW2R
gP+KOf80aTPKUf7WtLo/EL3PQvmGAaHegL6cgvashD1yVf9tVd0TqYDzfRKiX7z4
jJ2ST1A27YcwxvxZWXqUtShNzcYeIEa890eeB3ZUW+bhZ8RcjBLEXtFHLoitWEBc
waI3mMgrSEkYkzZcFUwrPSFX+HYppXmb9HN9nxeXZGQw
-----END CERTIFICATE-----
