Certificate:
    Data:
        Version: 3 (0x2)
        Serial Number:
            2d:e5:a2:06:7d:e2:df:23:29:78:82:db:83:45:b3:e0:24:58:bb:7e
        Signature Algorithm: sha256WithRSAEncryption
        Issuer: C=AU, O=Dodgy Brothers, CN=Dodgy CA
        Validity
            Not Before: Jun  7 14:34:41 2024 GMT
            Not After : Jun  7 14:34:41 2025 GMT
        Subject: C=AU, O=Dodgy Brothers, CN=Brother 1, CN=Brother 2
        Subject Public Key Info:
            Public Key Algorithm: rsaEncryption
                Public-Key: (2048 bit)
                Modulus:
                    00:a8:ff:89:58:61:85:ae:de:db:2c:0f:d5:73:fb:
                    e2:b7:a8:1b:7a:75:60:2b:d4:7d:3c:73:76:b5:ae:
                    de:93:2f:7f:24:90:6d:c9:1c:f4:8a:38:cd:9f:a2:
                    80:16:56:cb:b4:2c:bb:93:e5:17:1f:ff:0d:c6:43:
                    fe:31:34:f8:28:d8:75:e9:a3:bb:88:82:ef:a3:72:
                    e2:53:62:05:45:4d:e0:31:97:ef:aa:9d:10:d2:58:
                    0d:9e:06:9e:32:bb:1b:08:56:5d:65:0f:3f:66:8e:
                    c2:36:a0:11:ff:c0:59:35:fd:49:1c:dd:1c:42:33:
                    06:78:ae:04:38:23:e5:e7:75:67:d3:94:ad:5a:a9:
                    40:1f:ac:59:10:f5:0c:c1:64:ad:4a:c4:c6:35:53:
                    b3:96:6a:82:1b:15:8b:d1:99:ab:e4:9e:6f:94:aa:
                    d2:96:e5:57:fb:8c:91:64:8a:3c:24:16:c6:d2:19:
                    be:82:60:13:3b:62:b0:ed:3e:1d:b3:ca:f9:6b:df:
                    31:b9:7a:9e:4b:47:68:a7:29:c7:3f:4a:e2:22:27:
                    b4:ef:90:63:d7:ef:d0:72:49:3e:5b:ad:b9:1b:d4:
                    2b:6f:86:68:dd:d5:73:12:b8:43:c9:dc:41:0f:a2:
                    a3:46:4f:8b:67:88:84:0f:61:fe:79:34:1f:4a:89:
                    1f:b7
                Exponent: 65537 (0x10001)
        X509v3 extensions:
            X509v3 Basic Constraints: 
                CA:FALSE
            X509v3 Subject Key Identifier: 
                E7:9B:E2:2A:AD:8A:6C:3A:CB:76:51:E5:8E:07:98:22:97:E1:73:A2
            X509v3 Authority Key Identifier: 
                B4:11:33:F1:D7:E2:5E:F7:53:9E:20:22:10:4F:86:06:BF:1F:C9:5E
    Signature Algorithm: sha256WithRSAEncryption
    Signature Value:
        4e:e9:44:d7:a2:4e:df:28:dc:51:eb:35:91:b3:df:f9:56:5c:
        ba:ec:ea:24:ba:c5:c0:35:f4:0d:c6:26:fc:39:84:a6:35:a8:
        0d:91:51:6a:79:3f:8c:3a:90:75:bf:51:80:50:e8:08:d0:ed:
        25:7a:a5:cb:f6:3f:8d:a6:d8:6f:cc:5f:fc:64:b6:84:b3:79:
        93:4c:72:dc:6c:30:3b:f5:a9:ea:4c:29:f4:40:99:71:9e:40:
        8c:aa:7d:d0:1b:33:4c:d5:91:f9:11:76:8f:6d:08:5d:0f:33:
        6d:ae:fb:ba:2f:36:60:7b:86:d6:f9:18:93:83:76:6d:e6:2a:
        e7:63:fb:82:ec:46:10:60:1c:5c:b2:fa:44:62:b4:87:9d:61:
        b3:57:ab:f5:b3:e2:6c:16:f5:2b:7f:4f:80:71:43:e1:41:23:
        b6:89:4a:ae:ce:0c:29:63:a7:ae:a3:a3:a6:67:19:83:fc:bf:
        69:1e:3f:6f:c6:6b:fd:06:9a:d2:c7:0c:c7:49:8e:c4:89:da:
        92:20:66:92:29:ba:87:fd:cc:4f:a8:53:c2:5e:ed:ef:d9:97:
        9c:52:0f:55:8c:40:b0:f9:38:28:e2:25:0e:2c:db:5d:fe:df:
        54:53:e4:86:7c:04:09:7d:94:01:8f:72:b9:8a:22:81:78:65:
        f8:7a:99:17
-----BEGIN CERTIFICATE-----
MIIDYjCCAkqgAwIBAgIULeWiBn3i3yMpeILbg0Wz4CRYu34wDQYJKoZIhvcNAQEL
BQAwOTELMAkGA1UEBhMCQVUxFzAVBgNVBAoMDkRvZGd5IEJyb3RoZXJzMREwDwYD
VQQDDAhEb2RneSBDQTAeFw0yNDA2MDcxNDM0NDFaFw0yNTA2MDcxNDM0NDFaME4x
CzAJBgNVBAYTAkFVMRcwFQYDVQQKDA5Eb2RneSBCcm90aGVyczESMBAGA1UEAwwJ
QnJvdGhlciAxMRIwEAYDVQQDDAlCcm90aGVyIDIwggEiMA0GCSqGSIb3DQEBAQUA
A4IBDwAwggEKAoIBAQCo/4lYYYWu3tssD9Vz++K3qBt6dWAr1H08c3a1rt6TL38k
kG3JHPSKOM2fooAWVsu0LLuT5Rcf/w3GQ/4xNPgo2HXpo7uIgu+jcuJTYgVFTeAx
l++qnRDSWA2eBp4yuxsIVl1lDz9mjsI2oBH/wFk1/Ukc3RxCMwZ4rgQ4I+XndWfT
lK1aqUAfrFkQ9QzBZK1KxMY1U7OWaoIbFYvRmavknm+UqtKW5Vf7jJFkijwkFsbS
Gb6CYBM7YrDtPh2zyvlr3zG5ep5LR2inKcc/SuIiJ7TvkGPX79ByST5brbkb1Ctv
hmjd1XMSuEPJ3EEPoqNGT4tniIQPYf55NB9KiR+3AgMBAAGjTTBLMAkGA1UdEwQC
MAAwHQYDVR0OBBYEFOeb4iqtimw6y3ZR5Y4HmCKX4XOiMB8GA1UdIwQYMBaAFLQR
M/HX4l73U54gIhBPhga/H8leMA0GCSqGSIb3DQEBCwUAA4IBAQBO6UTXok7fKNxR
6zWRs9/5Vly67OokusXANfQNxib8OYSmNagNkVFqeT+MOpB1v1GAUOgI0O0leqXL
9j+NpthvzF/8ZLaEs3mTTHLcbDA79anqTCn0QJlxnkCMqn3QGzNM1ZH5EXaPbQhd
DzNtrvu6LzZge4bW+RiTg3Zt5irnY/uC7EYQYBxcsvpEYrSHnWGzV6v1s+JsFvUr
f0+AcUPhQSO2iUquzgwpY6euo6OmZxmD/L9pHj9vxmv9BprSxwzHSY7EidqSIGaS
KbqH/cxPqFPCXu3v2ZecUg9VjECw+Tgo4iUOLNtd/t9UU+SGfAQJfZQBj3K5iiKB
eGX4epkX
-----END CERTIFICATE-----
