Certificate:
    Data:
        Version: 3 (0x2)
        Serial Number:
            52:63:67:50:15:0a:0c:dd:5c:ce:9c:21:34:d3:e4:7b:da:58:ee:11
        Signature Algorithm: sha1WithRSAEncryption
        Issuer: C=AU, O=Dodgy Brothers, CN=Dodgy CA
        Validity
            Not Before: Jun  7 14:34:40 2024 GMT
            Not After : Jun  7 14:34:40 2027 GMT
        Subject: C=AU, O=Dodgy Brothers, CN=Dodgy CA
        Subject Public Key Info:
            Public Key Algorithm: rsaEncryption
                Public-Key: (2048 bit)
                Modulus:
                    00:96:9d:a4:3d:00:4b:1c:5f:c6:cb:dd:8f:d2:31:
                    b2:88:15:cc:c4:86:2c:5c:e2:69:8b:84:f4:a7:a3:
                    53:df:91:e3:bf:51:89:fb:f0:7c:10:0d:3b:ad:ac:
                    35:62:75:f5:7f:ff:f4:6e:54:8f:05:a6:92:23:b3:
                    9f:59:39:d0:39:18:b0:10:40:de:62:73:8a:4e:b0:
                    8e:df:dc:e7:c9:41:22:54:84:80:08:29:bc:35:3c:
                    86:df:30:de:dd:b4:24:ff:7e:62:a5:c0:7a:e8:2a:
                    16:3f:d6:97:da:c5:42:db:2f:69:64:91:cb:08:d7:
                    56:5a:79:7f:1b:84:41:e9:4d:9d:77:09:10:a8:6c:
                    29:33:44:c6:c0:54:65:e6:e8:e3:f2:75:05:6a:64:
                    95:6c:c0:f4:fd:25:61:6e:48:36:f0:c0:03:07:05:
                    d6:7c:e5:11:fd:18:e8:4a:2d:d3:72:0c:37:28:36:
                    31:31:38:85:e8:71:8d:d8:02:49:c8:bc:19:89:c5:
                    8a:b1:3f:a2:35:ea:aa:90:1c:64:68:7b:af:67:6a:
                    5a:06:54:0f:50:e1:f9:b4:f6:be:3a:d4:ce:3f:1e:
                    4c:7d:c6:77:32:3e:a2:58:ed:db:dd:74:d8:92:14:
                    6a:a8:f7:cb:34:58:91:a8:7c:14:b1:7d:08:b3:4d:
                    b1:47
                Exponent: 65537 (0x10001)
        X509v3 extensions:
            X509v3 Subject Key Identifier: 
                B4:11:33:F1:D7:E2:5E:F7:53:9E:20:22:10:4F:86:06:BF:1F:C9:5E
            X509v3 Authority Key Identifier: 
                keyid:B4:11:33:F1:D7:E2:5E:F7:53:9E:20:22:10:4F:86:06:BF:1F:C9:5E
                DirName:/C=AU/O=Dodgy Brothers/CN=Dodgy CA
                serial:52:63:67:50:15:0A:0C:DD:5C:CE:9C:21:34:D3:E4:7B:DA:58:EE:11
            X509v3 Basic Constraints: critical
                CA:TRUE, pathlen:1
            X509v3 Key Usage: 
                Certificate Sign, CRL Sign
            X509v3 Issuer Alternative Name: 
                <EMPTY>

    Signature Algorithm: sha1WithRSAEncryption
    Signature Value:
        43:7d:86:70:99:08:fe:bc:60:ea:10:e7:ac:fc:64:7c:ae:37:
        16:64:b2:2b:d2:2a:c8:28:50:55:3d:21:48:9c:71:98:48:27:
        d2:fc:e0:8f:05:45:f2:cb:b0:a4:4d:57:65:65:34:e4:22:2b:
        05:76:a5:f1:1c:48:20:8f:d7:d5:f4:ed:f7:a9:2a:5c:c6:53:
        f3:b7:58:49:9d:42:b1:77:91:c3:1c:93:86:b0:47:6c:7e:3c:
        3d:c5:db:f1:51:bb:60:8d:be:01:1f:20:c6:f4:b8:00:c8:af:
        bb:f3:52:39:96:2e:e1:ff:aa:2f:8e:17:73:de:d3:35:52:75:
        0b:a0:53:43:88:69:6e:76:b8:55:31:a1:f0:2f:71:a1:80:a5:
        6c:e0:51:3c:55:fb:58:2c:b7:83:3a:4a:f9:1a:56:56:5f:c2:
        76:b4:e2:61:09:df:f6:b5:71:c9:7a:4d:47:c4:bc:66:62:83:
        54:4d:64:a4:95:13:3a:91:e4:31:24:91:0d:c2:ec:d6:ef:c4:
        06:8e:74:4d:2e:dc:34:ca:1f:59:40:8a:e8:b3:05:5e:b8:90:
        1b:81:dc:d0:a6:f1:47:96:a5:bd:61:17:13:74:32:38:54:70:
        5c:3f:4d:d3:f0:48:dd:6b:85:62:ec:f4:ec:c6:2d:01:ce:88:
        ea:f2:0a:60
-----BEGIN CERTIFICATE-----
MIIDxTCCAq2gAwIBAgIUUmNnUBUKDN1czpwhNNPke9pY7hEwDQYJKoZIhvcNAQEF
BQAwOTELMAkGA1UEBhMCQVUxFzAVBgNVBAoMDkRvZGd5IEJyb3RoZXJzMREwDwYD
VQQDDAhEb2RneSBDQTAeFw0yNDA2MDcxNDM0NDBaFw0yNzA2MDcxNDM0NDBaMDkx
CzAJBgNVBAYTAkFVMRcwFQYDVQQKDA5Eb2RneSBCcm90aGVyczERMA8GA1UEAwwI
RG9kZ3kgQ0EwggEiMA0GCSqGSIb3DQEBAQUAA4IBDwAwggEKAoIBAQCWnaQ9AEsc
X8bL3Y/SMbKIFczEhixc4mmLhPSno1PfkeO/UYn78HwQDTutrDVidfV///RuVI8F
ppIjs59ZOdA5GLAQQN5ic4pOsI7f3OfJQSJUhIAIKbw1PIbfMN7dtCT/fmKlwHro
KhY/1pfaxULbL2lkkcsI11ZaeX8bhEHpTZ13CRCobCkzRMbAVGXm6OPydQVqZJVs
wPT9JWFuSDbwwAMHBdZ85RH9GOhKLdNyDDcoNjExOIXocY3YAknIvBmJxYqxP6I1
6qqQHGRoe69naloGVA9Q4fm09r461M4/Hkx9xncyPqJY7dvddNiSFGqo98s0WJGo
fBSxfQizTbFHAgMBAAGjgcQwgcEwHQYDVR0OBBYEFLQRM/HX4l73U54gIhBPhga/
H8leMHQGA1UdIwRtMGuAFLQRM/HX4l73U54gIhBPhga/H8leoT2kOzA5MQswCQYD
VQQGEwJBVTEXMBUGA1UECgwORG9kZ3kgQnJvdGhlcnMxETAPBgNVBAMMCERvZGd5
IENBghRSY2dQFQoM3VzOnCE00+R72ljuETASBgNVHRMBAf8ECDAGAQH/AgEBMAsG
A1UdDwQEAwIBBjAJBgNVHRIEAjAAMA0GCSqGSIb3DQEBBQUAA4IBAQBDfYZwmQj+
vGDqEOes/GR8rjcWZLIr0irIKFBVPSFInHGYSCfS/OCPBUXyy7CkTVdlZTTkIisF
dqXxHEggj9fV9O33qSpcxlPzt1hJnUKxd5HDHJOGsEdsfjw9xdvxUbtgjb4BHyDG
9LgAyK+781I5li7h/6ovjhdz3tM1UnULoFNDiGludrhVMaHwL3GhgKVs4FE8VftY
LLeDOkr5GlZWX8J2tOJhCd/2tXHJek1HxLxmYoNUTWSklRM6keQxJJENwuzW78QG
jnRNLtw0yh9ZQIroswVeuJAbgdzQpvFHlqW9YRcTdDI4VHBcP03T8Ejda4Vi7PTs
xi0Bzojq8gpg
-----END CERTIFICATE-----
