Certificate:
    Data:
        Version: 3 (0x2)
        Serial Number:
            2d:e5:a2:06:7d:e2:df:23:29:78:82:db:83:45:b3:e0:24:58:bb:82
        Signature Algorithm: sha1WithRSAEncryption
        Issuer: C=AU, O=Dodgy Brothers, CN=Dodgy CA
        Validity
            Not Before: Jun  7 14:34:47 2024 GMT
            Not After : Jun  7 14:34:47 2025 GMT
        Subject: C=AU, O=Dodgy Brothers, CN=Brother 1, CN=lastupdate_invalid
        Subject Public Key Info:
            Public Key Algorithm: rsaEncryption
                Public-Key: (2048 bit)
                Modulus:
                    00:be:95:86:fa:71:4c:6a:ea:51:98:50:4b:99:a1:
                    2c:66:15:f3:60:f3:e1:ff:69:fb:ce:48:01:1d:fe:
                    e1:2c:38:b0:e3:bd:8f:4b:48:a7:7e:3a:c6:73:e3:
                    ab:bf:e1:da:6e:96:f5:fe:c3:e4:b4:a8:ad:bc:56:
                    34:d4:96:25:74:27:c3:10:db:35:10:25:1c:8e:4b:
                    81:9b:fb:42:04:7c:6f:3d:e2:38:6c:0e:e4:2e:8e:
                    2a:18:6d:30:cd:67:2a:23:6b:37:cf:05:9f:cc:b7:
                    59:58:7f:ba:c4:0a:3f:8c:a4:ad:cb:98:9c:c0:f2:
                    8f:69:67:0f:c1:4e:33:cf:fc:85:5e:bb:5e:cf:93:
                    b0:cf:d9:f4:52:79:87:b1:f8:4d:15:68:65:d5:b7:
                    19:08:63:7f:5e:b1:34:ad:05:8f:5a:f0:e4:e1:8f:
                    25:f2:5c:5c:61:95:b0:56:2d:31:2b:08:65:79:e5:
                    b1:3b:9d:3e:b9:52:4b:ac:5d:c4:58:66:85:8d:81:
                    b3:04:28:f4:3f:2f:ac:92:01:62:d5:fd:8e:0b:da:
                    02:0c:7a:c7:6e:09:1c:ac:1c:b2:4c:d7:54:b8:26:
                    33:b2:5f:14:f3:b1:f9:3d:62:4d:40:99:6b:b6:e7:
                    89:58:97:d6:d4:4d:ea:4b:68:52:f3:3c:a8:b1:35:
                    88:db
                Exponent: 65537 (0x10001)
        X509v3 extensions:
            X509v3 Subject Key Identifier: 
                A1:DF:33:C3:CF:3E:53:41:A7:68:44:CC:AA:19:E1:84:C9:0D:BC:C6
            X509v3 Authority Key Identifier: 
                keyid:B4:11:33:F1:D7:E2:5E:F7:53:9E:20:22:10:4F:86:06:BF:1F:C9:5E
                DirName:/C=AU/O=Dodgy Brothers/CN=Dodgy CA
                serial:52:63:67:50:15:0A:0C:DD:5C:CE:9C:21:34:D3:E4:7B:DA:58:EE:11
            X509v3 Basic Constraints: critical
                CA:TRUE, pathlen:1
            X509v3 Key Usage: 
                Certificate Sign, CRL Sign
            X509v3 Issuer Alternative Name: 
                <EMPTY>

    Signature Algorithm: sha1WithRSAEncryption
    Signature Value:
        42:db:5c:c5:e2:45:d1:1a:9d:a6:f4:92:71:80:d2:d9:c7:7c:
        a0:16:a4:4c:8d:44:0a:59:3f:da:3f:60:da:62:b7:5f:17:87:
        17:7c:01:10:6d:ef:4f:3d:31:83:33:41:a0:4e:64:72:4c:e2:
        df:79:5f:13:a0:12:27:fb:c0:bc:6d:82:5b:54:aa:6a:1c:51:
        7f:ac:46:d5:04:ee:de:48:ec:ca:da:58:4e:a9:6d:07:4a:42:
        a6:4e:63:66:d8:91:cd:82:d4:8a:bc:b8:bd:46:01:82:d8:10:
        a0:52:f2:67:e1:08:10:9f:42:9e:e4:af:fc:d3:22:a9:c2:58:
        1a:94:3c:10:7e:d8:99:48:6f:b3:78:d3:3f:7e:c2:dc:ea:26:
        a3:9d:74:eb:82:88:bc:68:70:f7:2b:8d:93:bc:50:37:da:af:
        16:2c:12:11:04:6c:9d:72:72:fb:8e:2c:ca:05:f6:49:29:53:
        e6:eb:71:fe:7b:b3:3a:45:d6:4c:06:a4:d1:dd:37:84:ed:7f:
        18:49:5c:30:de:64:c6:d1:49:3e:9a:d1:6a:51:ec:58:39:4c:
        b8:90:66:63:c3:e5:f8:69:ec:d9:e3:a0:7d:15:ec:bd:cc:f1:
        70:b0:fa:2f:92:6c:44:d2:78:8b:1c:d6:e3:72:e1:8a:30:28:
        4a:f1:71:73
-----BEGIN CERTIFICATE-----
MIID4zCCAsugAwIBAgIULeWiBn3i3yMpeILbg0Wz4CRYu4IwDQYJKoZIhvcNAQEF
BQAwOTELMAkGA1UEBhMCQVUxFzAVBgNVBAoMDkRvZGd5IEJyb3RoZXJzMREwDwYD
VQQDDAhEb2RneSBDQTAeFw0yNDA2MDcxNDM0NDdaFw0yNTA2MDcxNDM0NDdaMFcx
CzAJBgNVBAYTAkFVMRcwFQYDVQQKDA5Eb2RneSBCcm90aGVyczESMBAGA1UEAwwJ
QnJvdGhlciAxMRswGQYDVQQDDBJsYXN0dXBkYXRlX2ludmFsaWQwggEiMA0GCSqG
SIb3DQEBAQUAA4IBDwAwggEKAoIBAQC+lYb6cUxq6lGYUEuZoSxmFfNg8+H/afvO
SAEd/uEsOLDjvY9LSKd+OsZz46u/4dpulvX+w+S0qK28VjTUliV0J8MQ2zUQJRyO
S4Gb+0IEfG894jhsDuQujioYbTDNZyojazfPBZ/Mt1lYf7rECj+MpK3LmJzA8o9p
Zw/BTjPP/IVeu17Pk7DP2fRSeYex+E0VaGXVtxkIY39esTStBY9a8OThjyXyXFxh
lbBWLTErCGV55bE7nT65UkusXcRYZoWNgbMEKPQ/L6ySAWLV/Y4L2gIMesduCRys
HLJM11S4JjOyXxTzsfk9Yk1AmWu254lYl9bUTepLaFLzPKixNYjbAgMBAAGjgcQw
gcEwHQYDVR0OBBYEFKHfM8PPPlNBp2hEzKoZ4YTJDbzGMHQGA1UdIwRtMGuAFLQR
M/HX4l73U54gIhBPhga/H8leoT2kOzA5MQswCQYDVQQGEwJBVTEXMBUGA1UECgwO
RG9kZ3kgQnJvdGhlcnMxETAPBgNVBAMMCERvZGd5IENBghRSY2dQFQoM3VzOnCE0
0+R72ljuETASBgNVHRMBAf8ECDAGAQH/AgEBMAsGA1UdDwQEAwIBBjAJBgNVHRIE
AjAAMA0GCSqGSIb3DQEBBQUAA4IBAQBC21zF4kXRGp2m9JJxgNLZx3ygFqRMjUQK
WT/aP2DaYrdfF4cXfAEQbe9PPTGDM0GgTmRyTOLfeV8ToBIn+8C8bYJbVKpqHFF/
rEbVBO7eSOzK2lhOqW0HSkKmTmNm2JHNgtSKvLi9RgGC2BCgUvJn4QgQn0Ke5K/8
0yKpwlgalDwQftiZSG+zeNM/fsLc6iajnXTrgoi8aHD3K42TvFA32q8WLBIRBGyd
cnL7jizKBfZJKVPm63H+e7M6RdZMBqTR3TeE7X8YSVww3mTG0Uk+mtFqUexYOUy4
kGZjw+X4aezZ46B9Fey9zPFwsPovkmxE0niLHNbjcuGKMChK8XFz
-----END CERTIFICATE-----
