Certificate:
    Data:
        Version: 3 (0x2)
        Serial Number:
            2d:e5:a2:06:7d:e2:df:23:29:78:82:db:83:45:b3:e0:24:58:bb:83
        Signature Algorithm: sha1WithRSAEncryption
        Issuer: C=AU, O=Dodgy Brothers, CN=Dodgy CA
        Validity
            Not Before: Jun  7 14:34:48 2024 GMT
            Not After : Jun  7 14:34:48 2025 GMT
        Subject: C=AU, O=Dodgy Brothers, CN=Brother 1, CN=lastupdate_utctime
        Subject Public Key Info:
            Public Key Algorithm: rsaEncryption
                Public-Key: (2048 bit)
                Modulus:
                    00:be:95:86:fa:71:4c:6a:ea:51:98:50:4b:99:a1:
                    2c:66:15:f3:60:f3:e1:ff:69:fb:ce:48:01:1d:fe:
                    e1:2c:38:b0:e3:bd:8f:4b:48:a7:7e:3a:c6:73:e3:
                    ab:bf:e1:da:6e:96:f5:fe:c3:e4:b4:a8:ad:bc:56:
                    34:d4:96:25:74:27:c3:10:db:35:10:25:1c:8e:4b:
                    81:9b:fb:42:04:7c:6f:3d:e2:38:6c:0e:e4:2e:8e:
                    2a:18:6d:30:cd:67:2a:23:6b:37:cf:05:9f:cc:b7:
                    59:58:7f:ba:c4:0a:3f:8c:a4:ad:cb:98:9c:c0:f2:
                    8f:69:67:0f:c1:4e:33:cf:fc:85:5e:bb:5e:cf:93:
                    b0:cf:d9:f4:52:79:87:b1:f8:4d:15:68:65:d5:b7:
                    19:08:63:7f:5e:b1:34:ad:05:8f:5a:f0:e4:e1:8f:
                    25:f2:5c:5c:61:95:b0:56:2d:31:2b:08:65:79:e5:
                    b1:3b:9d:3e:b9:52:4b:ac:5d:c4:58:66:85:8d:81:
                    b3:04:28:f4:3f:2f:ac:92:01:62:d5:fd:8e:0b:da:
                    02:0c:7a:c7:6e:09:1c:ac:1c:b2:4c:d7:54:b8:26:
                    33:b2:5f:14:f3:b1:f9:3d:62:4d:40:99:6b:b6:e7:
                    89:58:97:d6:d4:4d:ea:4b:68:52:f3:3c:a8:b1:35:
                    88:db
                Exponent: 65537 (0x10001)
        X509v3 extensions:
            X509v3 Subject Key Identifier: 
                A1:DF:33:C3:CF:3E:53:41:A7:68:44:CC:AA:19:E1:84:C9:0D:BC:C6
            X509v3 Authority Key Identifier: 
                keyid:B4:11:33:F1:D7:E2:5E:F7:53:9E:20:22:10:4F:86:06:BF:1F:C9:5E
                DirName:/C=AU/O=Dodgy Brothers/CN=Dodgy CA
                serial:52:63:67:50:15:0A:0C:DD:5C:CE:9C:21:34:D3:E4:7B:DA:58:EE:11
            X509v3 Basic Constraints: critical
                CA:TRUE, pathlen:1
            X509v3 Key Usage: 
                Certificate Sign, CRL Sign
            X509v3 Issuer Alternative Name: 
                <EMPTY>

    Signature Algorithm: sha1WithRSAEncryption
    Signature Value:
        03:00:82:d0:97:04:aa:af:94:ee:22:a9:f1:40:8f:58:19:71:
        10:99:ef:16:68:bf:83:72:96:d1:8a:ce:54:ee:97:15:2e:6d:
        31:bb:8b:21:1c:f4:68:6f:c0:9d:c3:09:60:30:fb:c1:01:b6:
        a4:fb:b3:d0:98:2a:70:a1:09:43:f7:2e:51:ee:16:8d:f2:0f:
        dc:d0:32:1c:be:47:25:00:a8:5c:44:28:8c:aa:56:e3:8b:b9:
        6b:24:38:d4:c4:e6:64:97:b3:9f:a1:b2:8a:da:03:29:75:d9:
        02:66:5a:6d:85:40:12:3e:a8:2d:47:13:34:b6:14:cc:0f:ab:
        79:08:07:c5:c6:dd:c0:37:5c:bf:d5:44:9c:17:13:fa:c3:49:
        9b:78:ba:35:4c:35:09:3a:ed:48:0c:7f:62:74:f0:04:27:86:
        fe:b0:18:03:2d:e7:dd:f7:d8:5f:6a:c0:d3:32:a2:41:38:b9:
        b8:21:40:98:2d:6a:9b:cc:c2:fe:3b:ac:e2:23:42:5e:4f:58:
        48:5c:af:9f:99:bf:84:40:82:36:1d:46:33:11:43:39:18:d3:
        2a:1c:e9:c0:37:ee:1d:d5:cf:41:18:d8:2e:91:a5:1f:bf:a9:
        3b:32:94:8d:a1:b6:7a:26:f5:d5:c1:62:bc:0b:d1:27:d7:c8:
        15:0d:9b:c7
-----BEGIN CERTIFICATE-----
MIID4zCCAsugAwIBAgIULeWiBn3i3yMpeILbg0Wz4CRYu4MwDQYJKoZIhvcNAQEF
BQAwOTELMAkGA1UEBhMCQVUxFzAVBgNVBAoMDkRvZGd5IEJyb3RoZXJzMREwDwYD
VQQDDAhEb2RneSBDQTAeFw0yNDA2MDcxNDM0NDhaFw0yNTA2MDcxNDM0NDhaMFcx
CzAJBgNVBAYTAkFVMRcwFQYDVQQKDA5Eb2RneSBCcm90aGVyczESMBAGA1UEAwwJ
QnJvdGhlciAxMRswGQYDVQQDDBJsYXN0dXBkYXRlX3V0Y3RpbWUwggEiMA0GCSqG
SIb3DQEBAQUAA4IBDwAwggEKAoIBAQC+lYb6cUxq6lGYUEuZoSxmFfNg8+H/afvO
SAEd/uEsOLDjvY9LSKd+OsZz46u/4dpulvX+w+S0qK28VjTUliV0J8MQ2zUQJRyO
S4Gb+0IEfG894jhsDuQujioYbTDNZyojazfPBZ/Mt1lYf7rECj+MpK3LmJzA8o9p
Zw/BTjPP/IVeu17Pk7DP2fRSeYex+E0VaGXVtxkIY39esTStBY9a8OThjyXyXFxh
lbBWLTErCGV55bE7nT65UkusXcRYZoWNgbMEKPQ/L6ySAWLV/Y4L2gIMesduCRys
HLJM11S4JjOyXxTzsfk9Yk1AmWu254lYl9bUTepLaFLzPKixNYjbAgMBAAGjgcQw
gcEwHQYDVR0OBBYEFKHfM8PPPlNBp2hEzKoZ4YTJDbzGMHQGA1UdIwRtMGuAFLQR
M/HX4l73U54gIhBPhga/H8leoT2kOzA5MQswCQYDVQQGEwJBVTEXMBUGA1UECgwO
RG9kZ3kgQnJvdGhlcnMxETAPBgNVBAMMCERvZGd5IENBghRSY2dQFQoM3VzOnCE0
0+R72ljuETASBgNVHRMBAf8ECDAGAQH/AgEBMAsGA1UdDwQEAwIBBjAJBgNVHRIE
AjAAMA0GCSqGSIb3DQEBBQUAA4IBAQADAILQlwSqr5TuIqnxQI9YGXEQme8WaL+D
cpbRis5U7pcVLm0xu4shHPRob8CdwwlgMPvBAbak+7PQmCpwoQlD9y5R7haN8g/c
0DIcvkclAKhcRCiMqlbji7lrJDjUxOZkl7OfobKK2gMpddkCZlpthUASPqgtRxM0
thTMD6t5CAfFxt3AN1y/1UScFxP6w0mbeLo1TDUJOu1IDH9idPAEJ4b+sBgDLefd
99hfasDTMqJBOLm4IUCYLWqbzML+O6ziI0JeT1hIXK+fmb+EQII2HUYzEUM5GNMq
HOnAN+4d1c9BGNgukaUfv6k7MpSNobZ6JvXVwWK8C9En18gVDZvH
-----END CERTIFICATE-----
