Certificate:
    Data:
        Version: 3 (0x2)
        Serial Number:
            2d:e5:a2:06:7d:e2:df:23:29:78:82:db:83:45:b3:e0:24:58:bb:81
        Signature Algorithm: sha1WithRSAEncryption
        Issuer: C=AU, O=Dodgy Brothers, CN=Dodgy CA
        Validity
            Not Before: Jun  7 14:34:45 2024 GMT
            Not After : Jun  7 14:34:45 2025 GMT
        Subject: C=AU, O=Dodgy Brothers, CN=Brother 1, CN=notimes
        Subject Public Key Info:
            Public Key Algorithm: rsaEncryption
                Public-Key: (2048 bit)
                Modulus:
                    00:be:95:86:fa:71:4c:6a:ea:51:98:50:4b:99:a1:
                    2c:66:15:f3:60:f3:e1:ff:69:fb:ce:48:01:1d:fe:
                    e1:2c:38:b0:e3:bd:8f:4b:48:a7:7e:3a:c6:73:e3:
                    ab:bf:e1:da:6e:96:f5:fe:c3:e4:b4:a8:ad:bc:56:
                    34:d4:96:25:74:27:c3:10:db:35:10:25:1c:8e:4b:
                    81:9b:fb:42:04:7c:6f:3d:e2:38:6c:0e:e4:2e:8e:
                    2a:18:6d:30:cd:67:2a:23:6b:37:cf:05:9f:cc:b7:
                    59:58:7f:ba:c4:0a:3f:8c:a4:ad:cb:98:9c:c0:f2:
                    8f:69:67:0f:c1:4e:33:cf:fc:85:5e:bb:5e:cf:93:
                    b0:cf:d9:f4:52:79:87:b1:f8:4d:15:68:65:d5:b7:
                    19:08:63:7f:5e:b1:34:ad:05:8f:5a:f0:e4:e1:8f:
                    25:f2:5c:5c:61:95:b0:56:2d:31:2b:08:65:79:e5:
                    b1:3b:9d:3e:b9:52:4b:ac:5d:c4:58:66:85:8d:81:
                    b3:04:28:f4:3f:2f:ac:92:01:62:d5:fd:8e:0b:da:
                    02:0c:7a:c7:6e:09:1c:ac:1c:b2:4c:d7:54:b8:26:
                    33:b2:5f:14:f3:b1:f9:3d:62:4d:40:99:6b:b6:e7:
                    89:58:97:d6:d4:4d:ea:4b:68:52:f3:3c:a8:b1:35:
                    88:db
                Exponent: 65537 (0x10001)
        X509v3 extensions:
            X509v3 Subject Key Identifier: 
                A1:DF:33:C3:CF:3E:53:41:A7:68:44:CC:AA:19:E1:84:C9:0D:BC:C6
            X509v3 Authority Key Identifier: 
                keyid:B4:11:33:F1:D7:E2:5E:F7:53:9E:20:22:10:4F:86:06:BF:1F:C9:5E
                DirName:/C=AU/O=Dodgy Brothers/CN=Dodgy CA
                serial:52:63:67:50:15:0A:0C:DD:5C:CE:9C:21:34:D3:E4:7B:DA:58:EE:11
            X509v3 Basic Constraints: critical
                CA:TRUE, pathlen:1
            X509v3 Key Usage: 
                Certificate Sign, CRL Sign
            X509v3 Issuer Alternative Name: 
                <EMPTY>

    Signature Algorithm: sha1WithRSAEncryption
    Signature Value:
        50:d5:68:3a:85:bc:cb:22:29:ed:06:b2:af:89:f5:96:e0:3d:
        13:47:ea:b5:89:4b:b5:ae:71:1b:1d:e7:49:d1:46:b1:68:91:
        19:ec:99:5a:65:1a:68:28:e9:13:4f:b4:ba:b1:9a:ec:90:6c:
        96:48:c9:b8:f7:7b:ee:a9:2a:94:78:be:78:da:ef:83:71:13:
        89:8f:94:3c:1c:76:ec:19:c2:74:b7:9e:52:f0:6b:31:da:ec:
        f4:ca:5e:4c:e3:73:53:09:61:8f:2c:2f:9a:91:9f:58:4b:92:
        3e:bf:62:d2:dd:9c:74:c3:7b:41:56:8c:ac:c0:1f:4c:4c:a7:
        b4:98:ba:c8:70:e3:2e:57:24:aa:2c:35:c3:a8:88:b2:7e:d2:
        3d:e3:f9:b9:57:fc:0a:23:62:e0:a2:a7:b7:4c:c2:20:4f:92:
        b2:a7:e2:b1:7d:58:b7:00:e1:7b:fe:30:6a:c1:e2:5b:59:e0:
        34:11:18:81:da:3c:54:c6:07:98:86:71:10:70:04:74:4e:5f:
        b1:34:4d:6f:c9:d5:ef:61:72:c5:2b:3f:ad:c0:aa:c3:9c:ae:
        63:c0:b8:96:53:13:aa:2b:83:a0:14:1c:8a:89:96:52:b4:27:
        34:fa:6e:82:b8:92:28:79:b1:ae:4f:60:32:c8:65:08:51:02:
        64:27:2b:ec
-----BEGIN CERTIFICATE-----
MIID2DCCAsCgAwIBAgIULeWiBn3i3yMpeILbg0Wz4CRYu4EwDQYJKoZIhvcNAQEF
BQAwOTELMAkGA1UEBhMCQVUxFzAVBgNVBAoMDkRvZGd5IEJyb3RoZXJzMREwDwYD
VQQDDAhEb2RneSBDQTAeFw0yNDA2MDcxNDM0NDVaFw0yNTA2MDcxNDM0NDVaMEwx
CzAJBgNVBAYTAkFVMRcwFQYDVQQKDA5Eb2RneSBCcm90aGVyczESMBAGA1UEAwwJ
QnJvdGhlciAxMRAwDgYDVQQDDAdub3RpbWVzMIIBIjANBgkqhkiG9w0BAQEFAAOC
AQ8AMIIBCgKCAQEAvpWG+nFMaupRmFBLmaEsZhXzYPPh/2n7zkgBHf7hLDiw472P
S0infjrGc+Orv+Habpb1/sPktKitvFY01JYldCfDENs1ECUcjkuBm/tCBHxvPeI4
bA7kLo4qGG0wzWcqI2s3zwWfzLdZWH+6xAo/jKSty5icwPKPaWcPwU4zz/yFXrte
z5Owz9n0UnmHsfhNFWhl1bcZCGN/XrE0rQWPWvDk4Y8l8lxcYZWwVi0xKwhleeWx
O50+uVJLrF3EWGaFjYGzBCj0Py+skgFi1f2OC9oCDHrHbgkcrByyTNdUuCYzsl8U
87H5PWJNQJlrtueJWJfW1E3qS2hS8zyosTWI2wIDAQABo4HEMIHBMB0GA1UdDgQW
BBSh3zPDzz5TQadoRMyqGeGEyQ28xjB0BgNVHSMEbTBrgBS0ETPx1+Je91OeICIQ
T4YGvx/JXqE9pDswOTELMAkGA1UEBhMCQVUxFzAVBgNVBAoMDkRvZGd5IEJyb3Ro
ZXJzMREwDwYDVQQDDAhEb2RneSBDQYIUUmNnUBUKDN1czpwhNNPke9pY7hEwEgYD
VR0TAQH/BAgwBgEB/wIBATALBgNVHQ8EBAMCAQYwCQYDVR0SBAIwADANBgkqhkiG
9w0BAQUFAAOCAQEAUNVoOoW8yyIp7Qayr4n1luA9E0fqtYlLta5xGx3nSdFGsWiR
GeyZWmUaaCjpE0+0urGa7JBslkjJuPd77qkqlHi+eNrvg3ETiY+UPBx27BnCdLee
UvBrMdrs9MpeTONzUwlhjywvmpGfWEuSPr9i0t2cdMN7QVaMrMAfTEyntJi6yHDj
Llckqiw1w6iIsn7SPeP5uVf8CiNi4KKnt0zCIE+SsqfisX1YtwDhe/4wasHiW1ng
NBEYgdo8VMYHmIZxEHAEdE5fsTRNb8nV72FyxSs/rcCqw5yuY8C4llMTqiuDoBQc
iomWUrQnNPpugriSKHmxrk9gMshlCFECZCcr7A==
-----END CERTIFICATE-----
