Certificate:
    Data:
        Version: 3 (0x2)
        Serial Number: 1234567890 (0x499602d2)
        Signature Algorithm: sha256WithRSAEncryption
        Issuer: CN=ca.example.com
        Validity
            Not Before: Jun  7 14:25:04 2024 GMT
            Not After : Jun  7 14:25:04 2025 GMT
        Subject: CN=test.example.com
        Subject Public Key Info:
            Public Key Algorithm: rsaEncryption
                Public-Key: (2048 bit)
                Modulus:
                    00:ab:85:70:85:47:d8:78:8f:79:ef:b6:54:40:18:
                    2f:1a:5e:74:bb:04:23:2a:09:31:0c:5f:d2:16:3a:
                    79:85:cc:55:30:b2:a5:22:8f:43:8a:41:f9:0d:2d:
                    dc:73:97:40:f0:4f:eb:99:02:00:6d:71:21:bc:3c:
                    86:18:7f:34:2d:a7:68:ce:1a:af:78:95:07:ff:b5:
                    1a:2c:8b:be:55:56:97:6d:38:d5:20:02:6b:df:39:
                    84:70:0a:b6:fb:d0:77:c4:c5:0e:9d:6f:41:8c:cb:
                    c5:a1:f6:99:fd:c4:f7:5d:c7:8f:17:cb:58:17:18:
                    c4:11:35:33:8b:50:a2:f7:8c:83:fd:79:e7:38:7b:
                    3e:10:16:47:13:73:1e:90:2a:10:ae:e4:45:4b:ea:
                    86:47:8f:64:c3:bd:b3:36:c9:be:dd:cb:41:05:91:
                    40:14:70:6a:21:d1:dd:ce:57:5a:ba:33:4c:db:e1:
                    5a:f3:7f:b9:91:90:53:e7:ba:a6:5e:b3:4a:f0:cd:
                    a7:d4:33:85:59:6c:a0:fb:3a:2d:ba:fb:bc:b1:9d:
                    f8:6f:82:4f:ae:46:58:63:25:af:ba:a8:7a:0a:11:
                    45:0d:03:85:7f:57:14:56:41:0e:68:95:ab:32:2e:
                    cd:16:54:e4:2a:a0:63:fc:bb:d5:86:07:6b:e2:8f:
                    3d:d3
                Exponent: 65537 (0x10001)
        X509v3 extensions:
            X509v3 Subject Key Identifier: 
                19:8D:94:06:9D:1F:0D:EB:82:77:0E:86:62:4F:58:68:45:F3:A4:90
            X509v3 Authority Key Identifier: 
                19:8D:94:06:9D:1F:0D:EB:82:77:0E:86:62:4F:58:68:45:F3:A4:90
            X509v3 Basic Constraints: critical
                CA:TRUE
    Signature Algorithm: sha256WithRSAEncryption
    Signature Value:
        84:78:d2:28:90:1d:43:24:f4:e8:b4:bb:60:78:8c:30:e4:0c:
        e0:fc:eb:5a:f9:59:85:b9:bf:0a:af:77:c1:73:f5:d4:9e:e9:
        84:f7:9f:14:54:5a:90:16:91:f3:b1:bb:e4:ce:22:c1:24:75:
        cd:df:0a:83:fc:a8:4b:1c:12:25:a3:af:95:ec:65:ee:78:cc:
        12:df:f2:61:33:6c:9d:4d:f3:7d:9b:1a:b7:e7:20:37:73:4c:
        c6:9a:34:ef:ef:d4:fe:03:f8:73:d1:4e:12:08:9f:cc:97:0d:
        0d:a1:04:0f:a6:0d:68:6a:17:fb:ea:d9:79:c0:15:ee:74:3a:
        95:e9:0b:d8:45:b6:21:42:14:0b:b5:36:d4:80:af:11:67:ef:
        46:16:58:1a:cf:59:ba:97:4a:92:87:be:e6:35:82:ef:5f:36:
        2d:2f:6a:c7:3d:7c:a2:09:1d:5b:21:e1:60:9d:54:98:6c:69:
        f9:1b:ed:f9:30:5a:ce:d8:93:f0:b4:55:21:51:e1:cb:69:dd:
        6f:5d:a7:1a:37:3c:0c:7e:c5:c1:72:4f:2f:20:28:91:7b:8a:
        53:9c:a0:2c:cd:e4:f0:0c:b3:c5:76:f4:a1:1c:65:53:4a:4a:
        0e:5a:01:63:5e:ce:27:9c:80:ca:7f:dc:a4:9d:fb:65:71:b1:
        f4:9f:ef:46:b3:e5:43:3c:7a:7d:52:aa:d1:e4:94:75:70:b6:
        6b:1f:5e:d4:6f:77:19:b0:6a:24:b5:21:3c:02:2b:95:41:21:
        a7:6a:13:24:91:ba:19:e1:6d:b8:e9:3f:83:7c:d7:f1:82:b2:
        60:7e:7e:86:d0:1e:9c:ab:ed:3c:a8:da:a0:e8:e9:69:ae:ea:
        88:3b:5c:e5:d1:8a:eb:c1:72:bd:91:29:24:3e:24:6d:a1:c4:
        6b:00:58:24:30:65:3a:10:15:9d:7e:f7:23:48:4a:50:49:0b:
        2a:d7:ec:56:8e:fb:bf:ba:61:1a:da:8e:ce:fb:6f:c2:8c:19:
        0b:41:82:c8:71:62:88:bf:7f:b1:41:5b:95:d6:e0:79:ca:23:
        ec:d0:d9:65:22:10:06:e4:81:0f:b6:f2:d8:ff:a4:3c:e9:53:
        50:af:4b:bf:18:e3:08:9a:a4:ad:98:cd:f2:68:30:9c:05:4f:
        81:e3:2e:5b:13:35:e6:bd:d7:7f:fb:c4:f8:0b:c8:f5:b7:af:
        1f:38:13:9f:7f:ad:b8:af:76:e3:a5:32:37:03:d9:2e:84:5a:
        3a:0a:7d:c0:30:a1:8d:38:60:a9:af:05:2e:2b:19:1e:c2:95:
        ce:67:b7:a8:b3:f2:2b:e1:d6:7a:90:9e:aa:2a:d4:b6:cb:f4:
        20:ee:d3:59:1b:ed:51:3f
-----BEGIN CERTIFICATE-----
MIIEBTCCAe2gAwIBAgIESZYC0jANBgkqhkiG9w0BAQsFADAZMRcwFQYDVQQDDA5j
YS5leGFtcGxlLmNvbTAeFw0yNDA2MDcxNDI1MDRaFw0yNTA2MDcxNDI1MDRaMBsx
GTAXBgNVBAMMEHRlc3QuZXhhbXBsZS5jb20wggEiMA0GCSqGSIb3DQEBAQUAA4IB
DwAwggEKAoIBAQCrhXCFR9h4j3nvtlRAGC8aXnS7BCMqCTEMX9IWOnmFzFUwsqUi
j0OKQfkNLdxzl0DwT+uZAgBtcSG8PIYYfzQtp2jOGq94lQf/tRosi75VVpdtONUg
AmvfOYRwCrb70HfExQ6db0GMy8Wh9pn9xPddx48Xy1gXGMQRNTOLUKL3jIP9eec4
ez4QFkcTcx6QKhCu5EVL6oZHj2TDvbM2yb7dy0EFkUAUcGoh0d3OV1q6M0zb4Vrz
f7mRkFPnuqZes0rwzafUM4VZbKD7Oi26+7yxnfhvgk+uRlhjJa+6qHoKEUUNA4V/
VxRWQQ5olasyLs0WVOQqoGP8u9WGB2vijz3TAgMBAAGjUzBRMB0GA1UdDgQWBBQZ
jZQGnR8N64J3DoZiT1hoRfOkkDAfBgNVHSMEGDAWgBQZjZQGnR8N64J3DoZiT1ho
RfOkkDAPBgNVHRMBAf8EBTADAQH/MA0GCSqGSIb3DQEBCwUAA4ICAQCEeNIokB1D
JPTotLtgeIww5Azg/Ota+VmFub8Kr3fBc/XUnumE958UVFqQFpHzsbvkziLBJHXN
3wqD/KhLHBIlo6+V7GXueMwS3/JhM2ydTfN9mxq35yA3c0zGmjTv79T+A/hz0U4S
CJ/Mlw0NoQQPpg1oahf76tl5wBXudDqV6QvYRbYhQhQLtTbUgK8RZ+9GFlgaz1m6
l0qSh77mNYLvXzYtL2rHPXyiCR1bIeFgnVSYbGn5G+35MFrO2JPwtFUhUeHLad1v
XacaNzwMfsXBck8vICiRe4pTnKAszeTwDLPFdvShHGVTSkoOWgFjXs4nnIDKf9yk
nftlcbH0n+9Gs+VDPHp9UqrR5JR1cLZrH17Ub3cZsGoktSE8AiuVQSGnahMkkboZ
4W246T+DfNfxgrJgfn6G0B6cq+08qNqg6OlpruqIO1zl0YrrwXK9kSkkPiRtocRr
AFgkMGU6EBWdfvcjSEpQSQsq1+xWjvu/umEa2o7O+2/CjBkLQYLIcWKIv3+xQVuV
1uB5yiPs0NllIhAG5IEPtvLY/6Q86VNQr0u/GOMImqStmM3yaDCcBU+B4y5bEzXm
vdd/+8T4C8j1t68fOBOff624r3bjpTI3A9kuhFo6Cn3AMKGNOGCprwUuKxkewpXO
Z7eos/Ir4dZ6kJ6qKtS2y/Qg7tNZG+1RPw==
-----END CERTIFICATE-----
